; Function Attrs: mustprogress nofree norecurse nosync nounwind willreturn memory(none) uwtable
define noundef range(i32 -2147483604, -2147483648) i32 @_ZNK10open_spiel5maedn10MaednState14AbsPosToRelPosEii(ptr noundef nonnull readnone align 8 captures(none) dereferenceable(160) %0, i32 noundef %1, i32 noundef %2) local_unnamed_addr #7 align 2 {
  %4 = icmp slt i32 %1, 40
  br i1 %4, label %5, label %9

5:                                                ; preds = %3
  %.neg = mul i32 %2, -10
  %6 = add nsw i32 %1, 40
  %7 = add i32 %6, %.neg
  %8 = srem i32 %7, 40
  br label %12

9:                                                ; preds = %3
  %10 = shl nsw i32 %2, 2
  %11 = sub nsw i32 %1, %10
  br label %12

12:                                               ; preds = %9, %5
  %.0 = phi i32 [ %8, %5 ], [ %11, %9 ]
  ret i32 %.0
}